target datalayout = "e-m:e-p270:32:32-p271:32:32-p272:64:64-i64:64-i128:128-f80:128-n8:16:32:64-S128"
target triple = "x86_64-pc-linux-gnu"

@.str.1 = private unnamed_addr constant [27 x i8] c"../openssl/apps/lib/apps.c\00", align 1
@.str.4 = private unnamed_addr constant [10 x i8] c"<unknown>\00", align 1
@bio_err = external global ptr, align 8
@.str.5 = private unnamed_addr constant [31 x i8] c"Error getting password for %s\0A\00", align 1
@.str.6 = private unnamed_addr constant [57 x i8] c"Trying plain input string (better precede with 'pass:')\0A\00", align 1
@.str.7 = private unnamed_addr constant [39 x i8] c"Out of memory getting password for %s\0A\00", align 1

; Function Attrs: nounwind uwtable
define dso_local i32 @app_passwd(ptr noundef %0, ptr noundef %1, ptr noundef %2, ptr noundef %3) #0 {
  %5 = alloca i32, align 4
  %6 = alloca ptr, align 8
  %7 = alloca ptr, align 8
  %8 = alloca ptr, align 8
  %9 = alloca ptr, align 8
  %10 = alloca i32, align 4
  %11 = alloca i32, align 4
  store ptr %0, ptr %6, align 8, !tbaa !9
  store ptr %1, ptr %7, align 8, !tbaa !9
  store ptr %2, ptr %8, align 8, !tbaa !24
  store ptr %3, ptr %9, align 8, !tbaa !24
  call void @llvm.lifetime.start.p0(i64 4, ptr %10) #12
  %12 = load ptr, ptr %6, align 8, !tbaa !9
  %13 = icmp ne ptr %12, null
  br i1 %13, label %14, label %22

14:                                               ; preds = %4
  %15 = load ptr, ptr %7, align 8, !tbaa !9
  %16 = icmp ne ptr %15, null
  br i1 %16, label %17, label %22

17:                                               ; preds = %14
  %18 = load ptr, ptr %6, align 8, !tbaa !9
  %19 = load ptr, ptr %7, align 8, !tbaa !9
  %20 = call i32 @strcmp(ptr noundef %18, ptr noundef %19) #14
  %21 = icmp eq i32 %20, 0
  br label %22

22:                                               ; preds = %17, %14, %4
  %23 = phi i1 [ false, %14 ], [ false, %4 ], [ %21, %17 ]
  %24 = zext i1 %23 to i32
  store i32 %24, ptr %10, align 4, !tbaa !25
  %25 = load ptr, ptr %6, align 8, !tbaa !9
  %26 = icmp ne ptr %25, null
  br i1 %26, label %27, label %37

27:                                               ; preds = %22
  %28 = load ptr, ptr %6, align 8, !tbaa !9
  %29 = load i32, ptr %10, align 4, !tbaa !25
  %30 = call ptr @app_get_pass(ptr noundef %28, i32 noundef %29)
  %31 = load ptr, ptr %8, align 8, !tbaa !24
  store ptr %30, ptr %31, align 8, !tbaa !9
  %32 = load ptr, ptr %8, align 8, !tbaa !24
  %33 = load ptr, ptr %32, align 8, !tbaa !9
  %34 = icmp eq ptr %33, null
  br i1 %34, label %35, label %36

35:                                               ; preds = %27
  store i32 0, ptr %5, align 4
  store i32 1, ptr %11, align 4
  br label %65

36:                                               ; preds = %27
  br label %43

37:                                               ; preds = %22
  %38 = load ptr, ptr %8, align 8, !tbaa !24
  %39 = icmp ne ptr %38, null
  br i1 %39, label %40, label %42

40:                                               ; preds = %37
  %41 = load ptr, ptr %8, align 8, !tbaa !24
  store ptr null, ptr %41, align 8, !tbaa !9
  br label %42

42:                                               ; preds = %40, %37
  br label %43

43:                                               ; preds = %42, %36
  %44 = load ptr, ptr %7, align 8, !tbaa !9
  %45 = icmp ne ptr %44, null
  br i1 %45, label %46, label %58

46:                                               ; preds = %43
  %47 = load ptr, ptr %7, align 8, !tbaa !9
  %48 = load i32, ptr %10, align 4, !tbaa !25
  %49 = icmp ne i32 %48, 0
  %50 = select i1 %49, i32 2, i32 0
  %51 = call ptr @app_get_pass(ptr noundef %47, i32 noundef %50)
  %52 = load ptr, ptr %9, align 8, !tbaa !24
  store ptr %51, ptr %52, align 8, !tbaa !9
  %53 = load ptr, ptr %9, align 8, !tbaa !24
  %54 = load ptr, ptr %53, align 8, !tbaa !9
  %55 = icmp eq ptr %54, null
  br i1 %55, label %56, label %57

56:                                               ; preds = %46
  store i32 0, ptr %5, align 4
  store i32 1, ptr %11, align 4
  br label %65

57:                                               ; preds = %46
  br label %64

58:                                               ; preds = %43
  %59 = load ptr, ptr %9, align 8, !tbaa !24
  %60 = icmp ne ptr %59, null
  br i1 %60, label %61, label %63

61:                                               ; preds = %58
  %62 = load ptr, ptr %9, align 8, !tbaa !24
  store ptr null, ptr %62, align 8, !tbaa !9
  br label %63

63:                                               ; preds = %61, %58
  br label %64

64:                                               ; preds = %63, %57
  store i32 1, ptr %5, align 4
  store i32 1, ptr %11, align 4
  br label %65

65:                                               ; preds = %64, %56, %35
  call void @llvm.lifetime.end.p0(i64 4, ptr %10) #12
  %66 = load i32, ptr %5, align 4
  ret i32 %66
}

; Function Attrs: nounwind uwtable
define dso_local ptr @get_passwd(ptr noundef %0, ptr noundef %1) #0 {
  %3 = alloca ptr, align 8
  %4 = alloca ptr, align 8
  %5 = alloca ptr, align 8
  store ptr %0, ptr %3, align 8, !tbaa !9
  store ptr %1, ptr %4, align 8, !tbaa !9
  call void @llvm.lifetime.start.p0(i64 8, ptr %5) #12
  store ptr null, ptr %5, align 8, !tbaa !9
  %6 = load ptr, ptr %4, align 8, !tbaa !9
  %7 = icmp eq ptr %6, null
  br i1 %7, label %8, label %9

8:                                                ; preds = %2
  store ptr @.str.4, ptr %4, align 8, !tbaa !9
  br label %9

9:                                                ; preds = %8, %2
  %10 = load ptr, ptr %3, align 8, !tbaa !9
  %11 = call i32 @app_passwd(ptr noundef %10, ptr noundef null, ptr noundef %5, ptr noundef null)
  %12 = icmp ne i32 %11, 0
  br i1 %12, label %17, label %13

13:                                               ; preds = %9
  %14 = load ptr, ptr @bio_err, align 8, !tbaa !35
  %15 = load ptr, ptr %4, align 8, !tbaa !9
  %16 = call i32 (ptr, ptr, ...) @BIO_printf(ptr noundef %14, ptr noundef @.str.5, ptr noundef %15)
  br label %17

17:                                               ; preds = %13, %9
  %18 = load ptr, ptr %3, align 8, !tbaa !9
  %19 = icmp ne ptr %18, null
  br i1 %19, label %20, label %35

20:                                               ; preds = %17
  %21 = load ptr, ptr %5, align 8, !tbaa !9
  %22 = icmp eq ptr %21, null
  br i1 %22, label %23, label %35

23:                                               ; preds = %20
  %24 = load ptr, ptr @bio_err, align 8, !tbaa !35
  %25 = call i32 (ptr, ptr, ...) @BIO_printf(ptr noundef %24, ptr noundef @.str.6)
  %26 = load ptr, ptr %3, align 8, !tbaa !9
  %27 = call noalias ptr @CRYPTO_strdup(ptr noundef %26, ptr noundef @.str.1, i32 noundef 222)
  store ptr %27, ptr %5, align 8, !tbaa !9
  %28 = load ptr, ptr %5, align 8, !tbaa !9
  %29 = icmp eq ptr %28, null
  br i1 %29, label %30, label %34

30:                                               ; preds = %23
  %31 = load ptr, ptr @bio_err, align 8, !tbaa !35
  %32 = load ptr, ptr %4, align 8, !tbaa !9
  %33 = call i32 (ptr, ptr, ...) @BIO_printf(ptr noundef %31, ptr noundef @.str.7, ptr noundef %32)
  br label %34

34:                                               ; preds = %30, %23
  br label %35

35:                                               ; preds = %34, %20, %17
  %36 = load ptr, ptr %5, align 8, !tbaa !9
  call void @llvm.lifetime.end.p0(i64 8, ptr %5) #12
  ret ptr %36
}