; Function Attrs: nounwind uwtable
define dso_local noalias ptr @get_passwd(ptr noundef %0, ptr noundef %1) local_unnamed_addr #0 {
  %3 = icmp eq ptr %1, null
  %spec.store.select = select i1 %3, ptr @.str.4, ptr %1
  %.not = icmp eq ptr %0, null
  br i1 %.not, label %app_passwd.exit.thread.thread, label %4

4:                                                ; preds = %2
  %5 = tail call fastcc ptr @app_get_pass(ptr noundef %0, i32 noundef 0)
  %6 = icmp eq ptr %5, null
  br i1 %6, label %app_passwd.exit.thread, label %app_passwd.exit.thread.thread

app_passwd.exit.thread:                           ; preds = %4
  %7 = load ptr, ptr @bio_err, align 8, !tbaa !26
  %8 = tail call i32 (ptr, ptr, ...) @BIO_printf(ptr noundef %7, ptr noundef nonnull @.str.5, ptr noundef nonnull %spec.store.select) #27
  %9 = load ptr, ptr @bio_err, align 8, !tbaa !26
  %10 = tail call i32 (ptr, ptr, ...) @BIO_printf(ptr noundef %9, ptr noundef nonnull @.str.6) #27
  %11 = tail call noalias ptr @CRYPTO_strdup(ptr noundef nonnull %0, ptr noundef nonnull @.str.1, i32 noundef 222) #27
  %12 = icmp eq ptr %11, null
  br i1 %12, label %13, label %app_passwd.exit.thread.thread

13:                                               ; preds = %app_passwd.exit.thread
  %14 = load ptr, ptr @bio_err, align 8, !tbaa !26
  %15 = tail call i32 (ptr, ptr, ...) @BIO_printf(ptr noundef %14, ptr noundef nonnull @.str.7, ptr noundef nonnull %spec.store.select) #27
  br label %app_passwd.exit.thread.thread

app_passwd.exit.thread.thread:                    ; preds = %4, %2, %app_passwd.exit.thread, %13
  %.0 = phi ptr [ null, %13 ], [ %11, %app_passwd.exit.thread ], [ %5, %4 ], [ null, %2 ]
  ret ptr %.0
}